GAS LISTING /tmp/cc4Whm0R.s 			page 1


   1              		.file	"syscall_cpp.cpp"
   2              		.option pic
   3              		.option norelax
   4              		.text
   5              	.Ltext0:
   6              		.section	.text._ZN6Thread3runEv,"axG",@progbits,_ZN6Thread3runEv,comdat
   7              		.align	2
   8              		.weak	_ZN6Thread3runEv
  10              	_ZN6Thread3runEv:
  11              	.LFB20:
  12              		.file 1 "src/../h/syscall_cpp.hpp"
   1:src/../h/syscall_cpp.hpp **** //
   2:src/../h/syscall_cpp.hpp **** // Created by os on 9/5/22.
   3:src/../h/syscall_cpp.hpp **** //
   4:src/../h/syscall_cpp.hpp **** 
   5:src/../h/syscall_cpp.hpp **** #ifndef PROJECT_BASE_V1_1_SYSCALL_CPP_HPP
   6:src/../h/syscall_cpp.hpp **** #define PROJECT_BASE_V1_1_SYSCALL_CPP_HPP
   7:src/../h/syscall_cpp.hpp **** 
   8:src/../h/syscall_cpp.hpp **** //#include "../lib/hw.h"
   9:src/../h/syscall_cpp.hpp **** #include "syscall_c.h"
  10:src/../h/syscall_cpp.hpp **** #include "../h/syscall_c.h"
  11:src/../h/syscall_cpp.hpp **** 
  12:src/../h/syscall_cpp.hpp **** 
  13:src/../h/syscall_cpp.hpp **** void *operator new(size_t n);
  14:src/../h/syscall_cpp.hpp **** void *operator new[](size_t n);
  15:src/../h/syscall_cpp.hpp **** 
  16:src/../h/syscall_cpp.hpp **** void operator delete(void *p)noexcept;
  17:src/../h/syscall_cpp.hpp **** void operator delete[](void *p)noexcept;
  18:src/../h/syscall_cpp.hpp **** 
  19:src/../h/syscall_cpp.hpp **** class Thread {
  20:src/../h/syscall_cpp.hpp **** public:
  21:src/../h/syscall_cpp.hpp ****     Thread(void (*body)(void *), void *arg);
  22:src/../h/syscall_cpp.hpp **** 
  23:src/../h/syscall_cpp.hpp ****     virtual ~Thread();
  24:src/../h/syscall_cpp.hpp **** 
  25:src/../h/syscall_cpp.hpp ****     int start();
  26:src/../h/syscall_cpp.hpp **** 
  27:src/../h/syscall_cpp.hpp ****     static void dispatch();
  28:src/../h/syscall_cpp.hpp **** 
  29:src/../h/syscall_cpp.hpp ****     friend void wrapper(void* t);
  30:src/../h/syscall_cpp.hpp **** 
  31:src/../h/syscall_cpp.hpp ****     //static int sleep(time_t);
  32:src/../h/syscall_cpp.hpp **** 
  33:src/../h/syscall_cpp.hpp **** protected:
  34:src/../h/syscall_cpp.hpp ****     Thread();
  35:src/../h/syscall_cpp.hpp ****     virtual void run() {}
  13              		.loc 1 35 18
  14              		.cfi_startproc
  15              	.LVL0:
  16 0000 130101FF 		addi	sp,sp,-16
  17              		.cfi_def_cfa_offset 16
  18 0004 23348100 		sd	s0,8(sp)
  19              		.cfi_offset 8, -8
  20 0008 13040101 		addi	s0,sp,16
  21              		.cfi_def_cfa 8, 0
  22              		.loc 1 35 25 is_stmt 0
  23 000c 03348100 		ld	s0,8(sp)
GAS LISTING /tmp/cc4Whm0R.s 			page 2


  24              		.cfi_restore 8
  25              		.cfi_def_cfa 2, 16
  26 0010 13010101 		addi	sp,sp,16
  27              		.cfi_def_cfa_offset 0
  28 0014 67800000 		jr	ra
  29              		.cfi_endproc
  30              	.LFE20:
  32              		.text
  33              		.align	2
  34              		.globl	_Z7wrapperPv
  36              	_Z7wrapperPv:
  37              	.LFB28:
  38              		.file 2 "src/syscall_cpp.cpp"
   1:src/syscall_cpp.cpp **** //
   2:src/syscall_cpp.cpp **** // Created by os on 9/5/22.
   3:src/syscall_cpp.cpp **** //
   4:src/syscall_cpp.cpp **** 
   5:src/syscall_cpp.cpp **** #include "../h/syscall_cpp.hpp"
   6:src/syscall_cpp.cpp **** #include "../h/tcb.hpp"
   7:src/syscall_cpp.cpp **** #include "../h/syscall_c.h"
   8:src/syscall_cpp.cpp **** 
   9:src/syscall_cpp.cpp **** void *operator new(size_t n) { return mem_alloc(n); }
  10:src/syscall_cpp.cpp **** void *operator new[](size_t n) { return mem_alloc(n); }
  11:src/syscall_cpp.cpp **** 
  12:src/syscall_cpp.cpp **** void operator delete(void *p) noexcept { mem_free(p); }
  13:src/syscall_cpp.cpp **** void operator delete[](void *p) noexcept { mem_free(p); }
  14:src/syscall_cpp.cpp **** 
  15:src/syscall_cpp.cpp **** 
  16:src/syscall_cpp.cpp **** Thread::Thread(void (*body)(void *), void *arg) {
  17:src/syscall_cpp.cpp ****     started = 0;
  18:src/syscall_cpp.cpp ****     thread_create_pending(&myHandle, body, arg);
  19:src/syscall_cpp.cpp **** }
  20:src/syscall_cpp.cpp **** 
  21:src/syscall_cpp.cpp **** void wrapper (void* t) {
  39              		.loc 2 21 24 is_stmt 1
  40              		.cfi_startproc
  41              	.LVL1:
  42 0000 130101FF 		addi	sp,sp,-16
  43              		.cfi_def_cfa_offset 16
  44 0004 23341100 		sd	ra,8(sp)
  45 0008 23308100 		sd	s0,0(sp)
  46              		.cfi_offset 1, -8
  47              		.cfi_offset 8, -16
  48 000c 13040101 		addi	s0,sp,16
  49              		.cfi_def_cfa 8, 0
  22:src/syscall_cpp.cpp ****     Thread *tr = (Thread*)t;
  50              		.loc 2 22 5
  51              	.LVL2:
  23:src/syscall_cpp.cpp ****     tr->run();
  52              		.loc 2 23 5
  53              		.loc 2 23 13 is_stmt 0
  54 0010 83370500 		ld	a5,0(a0)
  55 0014 83B70701 		ld	a5,16(a5)
  56              		.loc 2 23 12
  57 0018 E7800700 		jalr	a5
  58              	.LVL3:
  24:src/syscall_cpp.cpp **** }
GAS LISTING /tmp/cc4Whm0R.s 			page 3


  59              		.loc 2 24 1
  60 001c 83308100 		ld	ra,8(sp)
  61              		.cfi_restore 1
  62 0020 03340100 		ld	s0,0(sp)
  63              		.cfi_restore 8
  64              		.cfi_def_cfa 2, 16
  65 0024 13010101 		addi	sp,sp,16
  66              		.cfi_def_cfa_offset 0
  67 0028 67800000 		jr	ra
  68              		.cfi_endproc
  69              	.LFE28:
  71              		.align	2
  72              		.globl	_ZN6ThreadD2Ev
  74              	_ZN6ThreadD2Ev:
  75              	.LFB35:
  25:src/syscall_cpp.cpp **** 
  26:src/syscall_cpp.cpp **** Thread::Thread(){
  27:src/syscall_cpp.cpp ****     started = 0;
  28:src/syscall_cpp.cpp ****     thread_create_pending(&myHandle, wrapper, this);
  29:src/syscall_cpp.cpp **** }
  30:src/syscall_cpp.cpp **** 
  31:src/syscall_cpp.cpp **** void Thread::dispatch() {
  32:src/syscall_cpp.cpp ****     thread_dispatch();
  33:src/syscall_cpp.cpp **** }
  34:src/syscall_cpp.cpp **** 
  35:src/syscall_cpp.cpp **** 
  36:src/syscall_cpp.cpp **** int Thread::start() {
  37:src/syscall_cpp.cpp ****     if(!started){
  38:src/syscall_cpp.cpp ****         Scheduler::put(myHandle);
  39:src/syscall_cpp.cpp ****         myHandle->setFinished (false);
  40:src/syscall_cpp.cpp ****         }
  41:src/syscall_cpp.cpp ****         started = 1;
  42:src/syscall_cpp.cpp ****         return 0;
  43:src/syscall_cpp.cpp **** }
  44:src/syscall_cpp.cpp **** 
  45:src/syscall_cpp.cpp **** Thread::~Thread() {
  76              		.loc 2 45 1 is_stmt 1
  77              		.cfi_startproc
  78              		.cfi_personality 0x9b,DW.ref.__gxx_personality_v0
  79              		.cfi_lsda 0x1b,.LLSDA35
  80              	.LVL4:
  81 002c 130101FF 		addi	sp,sp,-16
  82              		.cfi_def_cfa_offset 16
  83 0030 23341100 		sd	ra,8(sp)
  84 0034 23308100 		sd	s0,0(sp)
  85              		.cfi_offset 1, -8
  86              		.cfi_offset 8, -16
  87 0038 13040101 		addi	s0,sp,16
  88              		.cfi_def_cfa 8, 0
  89              	.LBB4:
  90              		.loc 2 45 17 is_stmt 0
  91 003c 97070000 		lla	a5,_ZTV6Thread+16
  91      93870700 
  92 0044 2330F500 		sd	a5,0(a0)
  46:src/syscall_cpp.cpp ****     thread_exit();
  93              		.loc 2 46 5 is_stmt 1
  94              		.loc 2 46 16 is_stmt 0
GAS LISTING /tmp/cc4Whm0R.s 			page 4


  95 0048 97000000 		call	_Z11thread_exitv@plt
  95      E7800000 
  96              	.LVL5:
  97              	.LBE4:
  47:src/syscall_cpp.cpp **** }
  98              		.loc 2 47 1
  99 0050 83308100 		ld	ra,8(sp)
 100              		.cfi_restore 1
 101 0054 03340100 		ld	s0,0(sp)
 102              		.cfi_restore 8
 103              		.cfi_def_cfa 2, 16
 104 0058 13010101 		addi	sp,sp,16
 105              		.cfi_def_cfa_offset 0
 106 005c 67800000 		jr	ra
 107              		.cfi_endproc
 108              	.LFE35:
 109              		.globl	__gxx_personality_v0
 110              		.section	.gcc_except_table,"a",@progbits
 111              	.LLSDA35:
 112 0000 FF       		.byte	0xff
 113 0001 FF       		.byte	0xff
 114 0002 03       		.byte	0x3
 115 0003 00       		.byte	0
 116              		.text
 118              		.globl	_ZN6ThreadD1Ev
 119              		.set	_ZN6ThreadD1Ev,_ZN6ThreadD2Ev
 120              		.align	2
 121              		.globl	_Znwm
 123              	_Znwm:
 124              	.LFB21:
   9:src/syscall_cpp.cpp **** void *operator new[](size_t n) { return mem_alloc(n); }
 125              		.loc 2 9 30 is_stmt 1
 126              		.cfi_startproc
 127              	.LVL6:
 128 0060 130101FF 		addi	sp,sp,-16
 129              		.cfi_def_cfa_offset 16
 130 0064 23341100 		sd	ra,8(sp)
 131 0068 23308100 		sd	s0,0(sp)
 132              		.cfi_offset 1, -8
 133              		.cfi_offset 8, -16
 134 006c 13040101 		addi	s0,sp,16
 135              		.cfi_def_cfa 8, 0
   9:src/syscall_cpp.cpp **** void *operator new[](size_t n) { return mem_alloc(n); }
 136              		.loc 2 9 32
   9:src/syscall_cpp.cpp **** void *operator new[](size_t n) { return mem_alloc(n); }
 137              		.loc 2 9 48 is_stmt 0
 138 0070 97000000 		call	_Z9mem_allocm@plt
 138      E7800000 
 139              	.LVL7:
   9:src/syscall_cpp.cpp **** void *operator new[](size_t n) { return mem_alloc(n); }
 140              		.loc 2 9 53
 141 0078 83308100 		ld	ra,8(sp)
 142              		.cfi_restore 1
 143 007c 03340100 		ld	s0,0(sp)
 144              		.cfi_restore 8
 145              		.cfi_def_cfa 2, 16
 146 0080 13010101 		addi	sp,sp,16
GAS LISTING /tmp/cc4Whm0R.s 			page 5


 147              		.cfi_def_cfa_offset 0
 148 0084 67800000 		jr	ra
 149              		.cfi_endproc
 150              	.LFE21:
 152              		.align	2
 153              		.globl	_Znam
 155              	_Znam:
 156              	.LFB22:
  10:src/syscall_cpp.cpp **** 
 157              		.loc 2 10 32 is_stmt 1
 158              		.cfi_startproc
 159              	.LVL8:
 160 0088 130101FF 		addi	sp,sp,-16
 161              		.cfi_def_cfa_offset 16
 162 008c 23341100 		sd	ra,8(sp)
 163 0090 23308100 		sd	s0,0(sp)
 164              		.cfi_offset 1, -8
 165              		.cfi_offset 8, -16
 166 0094 13040101 		addi	s0,sp,16
 167              		.cfi_def_cfa 8, 0
  10:src/syscall_cpp.cpp **** 
 168              		.loc 2 10 34
  10:src/syscall_cpp.cpp **** 
 169              		.loc 2 10 50 is_stmt 0
 170 0098 97000000 		call	_Z9mem_allocm@plt
 170      E7800000 
 171              	.LVL9:
  10:src/syscall_cpp.cpp **** 
 172              		.loc 2 10 55
 173 00a0 83308100 		ld	ra,8(sp)
 174              		.cfi_restore 1
 175 00a4 03340100 		ld	s0,0(sp)
 176              		.cfi_restore 8
 177              		.cfi_def_cfa 2, 16
 178 00a8 13010101 		addi	sp,sp,16
 179              		.cfi_def_cfa_offset 0
 180 00ac 67800000 		jr	ra
 181              		.cfi_endproc
 182              	.LFE22:
 184              		.align	2
 185              		.globl	_ZdlPv
 187              	_ZdlPv:
 188              	.LFB23:
  12:src/syscall_cpp.cpp **** void operator delete[](void *p) noexcept { mem_free(p); }
 189              		.loc 2 12 40 is_stmt 1
 190              		.cfi_startproc
 191              		.cfi_personality 0x9b,DW.ref.__gxx_personality_v0
 192              		.cfi_lsda 0x1b,.LLSDA23
 193              	.LVL10:
 194 00b0 130101FF 		addi	sp,sp,-16
 195              		.cfi_def_cfa_offset 16
 196 00b4 23341100 		sd	ra,8(sp)
 197 00b8 23308100 		sd	s0,0(sp)
 198              		.cfi_offset 1, -8
 199              		.cfi_offset 8, -16
 200 00bc 13040101 		addi	s0,sp,16
 201              		.cfi_def_cfa 8, 0
GAS LISTING /tmp/cc4Whm0R.s 			page 6


  12:src/syscall_cpp.cpp **** void operator delete[](void *p) noexcept { mem_free(p); }
 202              		.loc 2 12 42
  12:src/syscall_cpp.cpp **** void operator delete[](void *p) noexcept { mem_free(p); }
 203              		.loc 2 12 50 is_stmt 0
 204 00c0 97000000 		call	_Z8mem_freePv@plt
 204      E7800000 
 205              	.LVL11:
  12:src/syscall_cpp.cpp **** void operator delete[](void *p) noexcept { mem_free(p); }
 206              		.loc 2 12 55
 207 00c8 83308100 		ld	ra,8(sp)
 208              		.cfi_restore 1
 209 00cc 03340100 		ld	s0,0(sp)
 210              		.cfi_restore 8
 211              		.cfi_def_cfa 2, 16
 212 00d0 13010101 		addi	sp,sp,16
 213              		.cfi_def_cfa_offset 0
 214 00d4 67800000 		jr	ra
 215              		.cfi_endproc
 216              	.LFE23:
 217              		.section	.gcc_except_table
 218              	.LLSDA23:
 219 0004 FF       		.byte	0xff
 220 0005 FF       		.byte	0xff
 221 0006 03       		.byte	0x3
 222 0007 00       		.byte	0
 223              		.text
 225              		.align	2
 226              		.globl	_ZN6ThreadD0Ev
 228              	_ZN6ThreadD0Ev:
 229              	.LFB37:
  45:src/syscall_cpp.cpp ****     thread_exit();
 230              		.loc 2 45 1 is_stmt 1
 231              		.cfi_startproc
 232              	.LVL12:
 233 00d8 130101FE 		addi	sp,sp,-32
 234              		.cfi_def_cfa_offset 32
 235 00dc 233C1100 		sd	ra,24(sp)
 236 00e0 23388100 		sd	s0,16(sp)
 237 00e4 23349100 		sd	s1,8(sp)
 238              		.cfi_offset 1, -8
 239              		.cfi_offset 8, -16
 240              		.cfi_offset 9, -24
 241 00e8 13040102 		addi	s0,sp,32
 242              		.cfi_def_cfa 8, 0
 243 00ec 93040500 		mv	s1,a0
 244              		.loc 2 47 1 is_stmt 0
 245 00f0 97000000 		call	_ZN6ThreadD1Ev
 245      E7800000 
 246              	.LVL13:
 247 00f8 13850400 		mv	a0,s1
 248 00fc 97000000 		call	_ZdlPv
 248      E7800000 
 249              	.LVL14:
 250 0104 83308101 		ld	ra,24(sp)
 251              		.cfi_restore 1
 252 0108 03340101 		ld	s0,16(sp)
 253              		.cfi_restore 8
GAS LISTING /tmp/cc4Whm0R.s 			page 7


 254              		.cfi_def_cfa 2, 32
 255 010c 83348100 		ld	s1,8(sp)
 256              		.cfi_restore 9
 257              	.LVL15:
 258 0110 13010102 		addi	sp,sp,32
 259              		.cfi_def_cfa_offset 0
 260 0114 67800000 		jr	ra
 261              		.cfi_endproc
 262              	.LFE37:
 264              		.align	2
 265              		.globl	_ZdaPv
 267              	_ZdaPv:
 268              	.LFB24:
  13:src/syscall_cpp.cpp **** 
 269              		.loc 2 13 42 is_stmt 1
 270              		.cfi_startproc
 271              		.cfi_personality 0x9b,DW.ref.__gxx_personality_v0
 272              		.cfi_lsda 0x1b,.LLSDA24
 273              	.LVL16:
 274 0118 130101FF 		addi	sp,sp,-16
 275              		.cfi_def_cfa_offset 16
 276 011c 23341100 		sd	ra,8(sp)
 277 0120 23308100 		sd	s0,0(sp)
 278              		.cfi_offset 1, -8
 279              		.cfi_offset 8, -16
 280 0124 13040101 		addi	s0,sp,16
 281              		.cfi_def_cfa 8, 0
  13:src/syscall_cpp.cpp **** 
 282              		.loc 2 13 44
  13:src/syscall_cpp.cpp **** 
 283              		.loc 2 13 52 is_stmt 0
 284 0128 97000000 		call	_Z8mem_freePv@plt
 284      E7800000 
 285              	.LVL17:
  13:src/syscall_cpp.cpp **** 
 286              		.loc 2 13 57
 287 0130 83308100 		ld	ra,8(sp)
 288              		.cfi_restore 1
 289 0134 03340100 		ld	s0,0(sp)
 290              		.cfi_restore 8
 291              		.cfi_def_cfa 2, 16
 292 0138 13010101 		addi	sp,sp,16
 293              		.cfi_def_cfa_offset 0
 294 013c 67800000 		jr	ra
 295              		.cfi_endproc
 296              	.LFE24:
 297              		.section	.gcc_except_table
 298              	.LLSDA24:
 299 0008 FF       		.byte	0xff
 300 0009 FF       		.byte	0xff
 301 000a 03       		.byte	0x3
 302 000b 00       		.byte	0
 303              		.text
 305              		.align	2
 306              		.globl	_ZN6ThreadC2EPFvPvES0_
 308              	_ZN6ThreadC2EPFvPvES0_:
 309              	.LFB26:
GAS LISTING /tmp/cc4Whm0R.s 			page 8


  16:src/syscall_cpp.cpp ****     started = 0;
 310              		.loc 2 16 1 is_stmt 1
 311              		.cfi_startproc
 312              	.LVL18:
 313 0140 130101FF 		addi	sp,sp,-16
 314              		.cfi_def_cfa_offset 16
 315 0144 23341100 		sd	ra,8(sp)
 316 0148 23308100 		sd	s0,0(sp)
 317              		.cfi_offset 1, -8
 318              		.cfi_offset 8, -16
 319 014c 13040101 		addi	s0,sp,16
 320              		.cfi_def_cfa 8, 0
 321              	.LBB5:
  16:src/syscall_cpp.cpp ****     started = 0;
 322              		.loc 2 16 47 is_stmt 0
 323 0150 97070000 		lla	a5,_ZTV6Thread+16
 323      93870700 
 324 0158 2330F500 		sd	a5,0(a0)
  17:src/syscall_cpp.cpp ****     thread_create_pending(&myHandle, body, arg);
 325              		.loc 2 17 5 is_stmt 1
  17:src/syscall_cpp.cpp ****     thread_create_pending(&myHandle, body, arg);
 326              		.loc 2 17 13 is_stmt 0
 327 015c 23240500 		sw	zero,8(a0)
  18:src/syscall_cpp.cpp **** }
 328              		.loc 2 18 5 is_stmt 1
  18:src/syscall_cpp.cpp **** }
 329              		.loc 2 18 26 is_stmt 0
 330 0160 13050501 		addi	a0,a0,16
 331              	.LVL19:
 332 0164 97000000 		call	_Z21thread_create_pendingPP3TCBPFvPvES2_@plt
 332      E7800000 
 333              	.LVL20:
 334              	.LBE5:
  19:src/syscall_cpp.cpp **** 
 335              		.loc 2 19 1
 336 016c 83308100 		ld	ra,8(sp)
 337              		.cfi_restore 1
 338 0170 03340100 		ld	s0,0(sp)
 339              		.cfi_restore 8
 340              		.cfi_def_cfa 2, 16
 341 0174 13010101 		addi	sp,sp,16
 342              		.cfi_def_cfa_offset 0
 343 0178 67800000 		jr	ra
 344              		.cfi_endproc
 345              	.LFE26:
 347              		.globl	_ZN6ThreadC1EPFvPvES0_
 348              		.set	_ZN6ThreadC1EPFvPvES0_,_ZN6ThreadC2EPFvPvES0_
 349              		.align	2
 350              		.globl	_ZN6ThreadC2Ev
 352              	_ZN6ThreadC2Ev:
 353              	.LFB30:
  26:src/syscall_cpp.cpp ****     started = 0;
 354              		.loc 2 26 1 is_stmt 1
 355              		.cfi_startproc
 356              	.LVL21:
 357 017c 130101FF 		addi	sp,sp,-16
 358              		.cfi_def_cfa_offset 16
GAS LISTING /tmp/cc4Whm0R.s 			page 9


 359 0180 23341100 		sd	ra,8(sp)
 360 0184 23308100 		sd	s0,0(sp)
 361              		.cfi_offset 1, -8
 362              		.cfi_offset 8, -16
 363 0188 13040101 		addi	s0,sp,16
 364              		.cfi_def_cfa 8, 0
 365              	.LBB6:
  26:src/syscall_cpp.cpp ****     started = 0;
 366              		.loc 2 26 16 is_stmt 0
 367 018c 97070000 		lla	a5,_ZTV6Thread+16
 367      93870700 
 368 0194 2330F500 		sd	a5,0(a0)
  27:src/syscall_cpp.cpp ****     thread_create_pending(&myHandle, wrapper, this);
 369              		.loc 2 27 5 is_stmt 1
  27:src/syscall_cpp.cpp ****     thread_create_pending(&myHandle, wrapper, this);
 370              		.loc 2 27 13 is_stmt 0
 371 0198 23240500 		sw	zero,8(a0)
  28:src/syscall_cpp.cpp **** }
 372              		.loc 2 28 5 is_stmt 1
  28:src/syscall_cpp.cpp **** }
 373              		.loc 2 28 26 is_stmt 0
 374 019c 13060500 		mv	a2,a0
 375 01a0 97050000 		lla	a1,_Z7wrapperPv
 375      93850500 
 376 01a8 13050501 		addi	a0,a0,16
 377              	.LVL22:
 378 01ac 97000000 		call	_Z21thread_create_pendingPP3TCBPFvPvES2_@plt
 378      E7800000 
 379              	.LVL23:
 380              	.LBE6:
  29:src/syscall_cpp.cpp **** 
 381              		.loc 2 29 1
 382 01b4 83308100 		ld	ra,8(sp)
 383              		.cfi_restore 1
 384 01b8 03340100 		ld	s0,0(sp)
 385              		.cfi_restore 8
 386              		.cfi_def_cfa 2, 16
 387 01bc 13010101 		addi	sp,sp,16
 388              		.cfi_def_cfa_offset 0
 389 01c0 67800000 		jr	ra
 390              		.cfi_endproc
 391              	.LFE30:
 393              		.globl	_ZN6ThreadC1Ev
 394              		.set	_ZN6ThreadC1Ev,_ZN6ThreadC2Ev
 395              		.align	2
 396              		.globl	_ZN6Thread8dispatchEv
 398              	_ZN6Thread8dispatchEv:
 399              	.LFB32:
  31:src/syscall_cpp.cpp ****     thread_dispatch();
 400              		.loc 2 31 25 is_stmt 1
 401              		.cfi_startproc
 402 01c4 130101FF 		addi	sp,sp,-16
 403              		.cfi_def_cfa_offset 16
 404 01c8 23341100 		sd	ra,8(sp)
 405 01cc 23308100 		sd	s0,0(sp)
 406              		.cfi_offset 1, -8
 407              		.cfi_offset 8, -16
GAS LISTING /tmp/cc4Whm0R.s 			page 10


 408 01d0 13040101 		addi	s0,sp,16
 409              		.cfi_def_cfa 8, 0
  32:src/syscall_cpp.cpp **** }
 410              		.loc 2 32 5
  32:src/syscall_cpp.cpp **** }
 411              		.loc 2 32 20 is_stmt 0
 412 01d4 97000000 		call	_Z15thread_dispatchv@plt
 412      E7800000 
 413              	.LVL24:
  33:src/syscall_cpp.cpp **** 
 414              		.loc 2 33 1
 415 01dc 83308100 		ld	ra,8(sp)
 416              		.cfi_restore 1
 417 01e0 03340100 		ld	s0,0(sp)
 418              		.cfi_restore 8
 419              		.cfi_def_cfa 2, 16
 420 01e4 13010101 		addi	sp,sp,16
 421              		.cfi_def_cfa_offset 0
 422 01e8 67800000 		jr	ra
 423              		.cfi_endproc
 424              	.LFE32:
 426              		.align	2
 427              		.globl	_ZN6Thread5startEv
 429              	_ZN6Thread5startEv:
 430              	.LFB33:
  36:src/syscall_cpp.cpp ****     if(!started){
 431              		.loc 2 36 21 is_stmt 1
 432              		.cfi_startproc
 433              	.LVL25:
 434 01ec 130101FE 		addi	sp,sp,-32
 435              		.cfi_def_cfa_offset 32
 436 01f0 233C1100 		sd	ra,24(sp)
 437 01f4 23388100 		sd	s0,16(sp)
 438 01f8 23349100 		sd	s1,8(sp)
 439              		.cfi_offset 1, -8
 440              		.cfi_offset 8, -16
 441              		.cfi_offset 9, -24
 442 01fc 13040102 		addi	s0,sp,32
 443              		.cfi_def_cfa 8, 0
 444 0200 93040500 		mv	s1,a0
  37:src/syscall_cpp.cpp ****         Scheduler::put(myHandle);
 445              		.loc 2 37 5
  37:src/syscall_cpp.cpp ****         Scheduler::put(myHandle);
 446              		.loc 2 37 9 is_stmt 0
 447 0204 83278500 		lw	a5,8(a0)
  37:src/syscall_cpp.cpp ****         Scheduler::put(myHandle);
 448              		.loc 2 37 5
 449 0208 63820702 		beqz	a5,.L26
 450              	.LVL26:
 451              	.L24:
  41:src/syscall_cpp.cpp ****         return 0;
 452              		.loc 2 41 9 is_stmt 1
  41:src/syscall_cpp.cpp ****         return 0;
 453              		.loc 2 41 17 is_stmt 0
 454 020c 93071000 		li	a5,1
 455 0210 23A4F400 		sw	a5,8(s1)
  42:src/syscall_cpp.cpp **** }
GAS LISTING /tmp/cc4Whm0R.s 			page 11


 456              		.loc 2 42 9 is_stmt 1
  43:src/syscall_cpp.cpp **** 
 457              		.loc 2 43 1 is_stmt 0
 458 0214 13050000 		li	a0,0
 459 0218 83308101 		ld	ra,24(sp)
 460              		.cfi_remember_state
 461              		.cfi_restore 1
 462 021c 03340101 		ld	s0,16(sp)
 463              		.cfi_restore 8
 464              		.cfi_def_cfa 2, 32
 465 0220 83348100 		ld	s1,8(sp)
 466              		.cfi_restore 9
 467              	.LVL27:
 468 0224 13010102 		addi	sp,sp,32
 469              		.cfi_def_cfa_offset 0
 470 0228 67800000 		jr	ra
 471              	.LVL28:
 472              	.L26:
 473              		.cfi_restore_state
  38:src/syscall_cpp.cpp ****         myHandle->setFinished (false);
 474              		.loc 2 38 9 is_stmt 1
  38:src/syscall_cpp.cpp ****         myHandle->setFinished (false);
 475              		.loc 2 38 23 is_stmt 0
 476 022c 03350501 		ld	a0,16(a0)
 477 0230 97000000 		call	_ZN9Scheduler3putEP3TCB@plt
 477      E7800000 
 478              	.LVL29:
  39:src/syscall_cpp.cpp ****         }
 479              		.loc 2 39 9 is_stmt 1
 480 0238 83B70401 		ld	a5,16(s1)
 481              	.LVL30:
 482              	.LBB7:
 483              	.LBB8:
 484              		.file 3 "src/../h/../h/tcb.hpp"
   1:src/../h/../h/tcb.hpp **** //
   2:src/../h/../h/tcb.hpp **** // Created by os on 9/6/22.
   3:src/../h/../h/tcb.hpp **** //
   4:src/../h/../h/tcb.hpp **** 
   5:src/../h/../h/tcb.hpp **** #ifndef PROJECT_BASE_V1_1_TCB_HPP
   6:src/../h/../h/tcb.hpp **** #define PROJECT_BASE_V1_1_TCB_HPP
   7:src/../h/../h/tcb.hpp **** 
   8:src/../h/../h/tcb.hpp **** 
   9:src/../h/../h/tcb.hpp **** #include "../lib/hw.h"
  10:src/../h/../h/tcb.hpp **** #include "scheduler.hpp"
  11:src/../h/../h/tcb.hpp **** #include "../h/memoryAllocator.hpp"
  12:src/../h/../h/tcb.hpp **** #include "syscall_c.h"
  13:src/../h/../h/tcb.hpp **** 
  14:src/../h/../h/tcb.hpp **** // Coroutine Control Block
  15:src/../h/../h/tcb.hpp **** class TCB
  16:src/../h/../h/tcb.hpp **** {
  17:src/../h/../h/tcb.hpp **** public:
  18:src/../h/../h/tcb.hpp **** 
  19:src/../h/../h/tcb.hpp ****     //TCB() = default;
  20:src/../h/../h/tcb.hpp **** 
  21:src/../h/../h/tcb.hpp ****     //~TCB() { MemoryAllocator::FreeMem((void*)stack); }
  22:src/../h/../h/tcb.hpp ****     ~TCB() { delete[] stack; }
  23:src/../h/../h/tcb.hpp ****     void* operator new(size_t size) {
GAS LISTING /tmp/cc4Whm0R.s 			page 12


  24:src/../h/../h/tcb.hpp ****         return MemoryAllocator::allocateB(size);
  25:src/../h/../h/tcb.hpp ****     }
  26:src/../h/../h/tcb.hpp ****     void operator delete(void* address) {
  27:src/../h/../h/tcb.hpp ****         MemoryAllocator::FreeMem(address);
  28:src/../h/../h/tcb.hpp ****     }
  29:src/../h/../h/tcb.hpp **** 
  30:src/../h/../h/tcb.hpp ****     bool isFinished() const { return finished; }
  31:src/../h/../h/tcb.hpp **** 
  32:src/../h/../h/tcb.hpp ****     void setFinished(bool value) { finished = value; }
 485              		.loc 3 32 36
 486              		.loc 3 32 45 is_stmt 0
 487 023c 23880702 		sb	zero,48(a5)
 488              		.loc 3 32 54
 489 0240 6FF0DFFC 		j	.L24
 490              	.LBE8:
 491              	.LBE7:
 492              		.cfi_endproc
 493              	.LFE33:
 495              		.weak	_ZTV6Thread
 496              		.section	.data.rel.ro.local._ZTV6Thread,"awG",@progbits,_ZTV6Thread,comdat
 497              		.align	3
 500              	_ZTV6Thread:
 501 0000 00000000 		.dword	0
 501      00000000 
 502 0008 00000000 		.dword	0
 502      00000000 
 503 0010 00000000 		.dword	_ZN6ThreadD1Ev
 503      00000000 
 504 0018 00000000 		.dword	_ZN6ThreadD0Ev
 504      00000000 
 505 0020 00000000 		.dword	_ZN6Thread3runEv
 505      00000000 
 506              		.text
 507              	.Letext0:
 508              		.file 4 "src/../h/../lib/hw.h"
 509              		.file 5 "src/../h/../h/scheduler.hpp"
 510              		.file 6 "src/../h/syscall_c.h"
 3186              		.align	3
 3189              	DW.ref.__gxx_personality_v0:
 3190 0000 00000000 		.dword	__gxx_personality_v0
 3190      00000000 
 3191              		.ident	"GCC: (Ubuntu 9.4.0-1ubuntu1~20.04) 9.4.0"
 3192              		.section	.note.GNU-stack,"",@progbits
GAS LISTING /tmp/cc4Whm0R.s 			page 13


DEFINED SYMBOLS
                            *ABS*:0000000000000000 syscall_cpp.cpp
     /tmp/cc4Whm0R.s:10     .text._ZN6Thread3runEv:0000000000000000 _ZN6Thread3runEv
     /tmp/cc4Whm0R.s:14     .text._ZN6Thread3runEv:0000000000000000 .L0 
     /tmp/cc4Whm0R.s:16     .text._ZN6Thread3runEv:0000000000000000 .L0 
     /tmp/cc4Whm0R.s:17     .text._ZN6Thread3runEv:0000000000000004 .L0 
     /tmp/cc4Whm0R.s:19     .text._ZN6Thread3runEv:0000000000000008 .L0 
     /tmp/cc4Whm0R.s:21     .text._ZN6Thread3runEv:000000000000000c .L0 
     /tmp/cc4Whm0R.s:23     .text._ZN6Thread3runEv:000000000000000c .L0 
     /tmp/cc4Whm0R.s:24     .text._ZN6Thread3runEv:0000000000000010 .L0 
     /tmp/cc4Whm0R.s:25     .text._ZN6Thread3runEv:0000000000000010 .L0 
     /tmp/cc4Whm0R.s:27     .text._ZN6Thread3runEv:0000000000000014 .L0 
     /tmp/cc4Whm0R.s:29     .text._ZN6Thread3runEv:0000000000000018 .L0 
     /tmp/cc4Whm0R.s:36     .text:0000000000000000 _Z7wrapperPv
     /tmp/cc4Whm0R.s:40     .text:0000000000000000 .L0 
     /tmp/cc4Whm0R.s:42     .text:0000000000000000 .L0 
     /tmp/cc4Whm0R.s:43     .text:0000000000000004 .L0 
     /tmp/cc4Whm0R.s:46     .text:000000000000000c .L0 
     /tmp/cc4Whm0R.s:47     .text:000000000000000c .L0 
     /tmp/cc4Whm0R.s:49     .text:0000000000000010 .L0 
     /tmp/cc4Whm0R.s:52     .text:0000000000000010 .L0 
     /tmp/cc4Whm0R.s:53     .text:0000000000000010 .L0 
     /tmp/cc4Whm0R.s:54     .text:0000000000000010 .L0 
     /tmp/cc4Whm0R.s:57     .text:0000000000000018 .L0 
     /tmp/cc4Whm0R.s:60     .text:000000000000001c .L0 
     /tmp/cc4Whm0R.s:61     .text:0000000000000020 .L0 
     /tmp/cc4Whm0R.s:63     .text:0000000000000024 .L0 
     /tmp/cc4Whm0R.s:64     .text:0000000000000024 .L0 
     /tmp/cc4Whm0R.s:66     .text:0000000000000028 .L0 
     /tmp/cc4Whm0R.s:68     .text:000000000000002c .L0 
     /tmp/cc4Whm0R.s:74     .text:000000000000002c _ZN6ThreadD2Ev
     /tmp/cc4Whm0R.s:77     .text:000000000000002c .L0 
     /tmp/cc4Whm0R.s:3189   .data.rel.local.DW.ref.__gxx_personality_v0:0000000000000000 DW.ref.__gxx_personality_v0
     /tmp/cc4Whm0R.s:81     .text:000000000000002c .L0 
     /tmp/cc4Whm0R.s:82     .text:0000000000000030 .L0 
     /tmp/cc4Whm0R.s:85     .text:0000000000000038 .L0 
     /tmp/cc4Whm0R.s:86     .text:0000000000000038 .L0 
     /tmp/cc4Whm0R.s:88     .text:000000000000003c .L0 
     /tmp/cc4Whm0R.s:500    .data.rel.ro.local._ZTV6Thread:0000000000000000 _ZTV6Thread
     /tmp/cc4Whm0R.s:91     .text:000000000000003c .L0 
     /tmp/cc4Whm0R.s:94     .text:0000000000000048 .L0 
     /tmp/cc4Whm0R.s:95     .text:0000000000000048 .L0 
     /tmp/cc4Whm0R.s:99     .text:0000000000000050 .L0 
     /tmp/cc4Whm0R.s:100    .text:0000000000000054 .L0 
     /tmp/cc4Whm0R.s:102    .text:0000000000000058 .L0 
     /tmp/cc4Whm0R.s:103    .text:0000000000000058 .L0 
     /tmp/cc4Whm0R.s:105    .text:000000000000005c .L0 
     /tmp/cc4Whm0R.s:107    .text:0000000000000060 .L0 
     /tmp/cc4Whm0R.s:74     .text:000000000000002c _ZN6ThreadD1Ev
     /tmp/cc4Whm0R.s:123    .text:0000000000000060 _Znwm
     /tmp/cc4Whm0R.s:126    .text:0000000000000060 .L0 
     /tmp/cc4Whm0R.s:128    .text:0000000000000060 .L0 
     /tmp/cc4Whm0R.s:129    .text:0000000000000064 .L0 
     /tmp/cc4Whm0R.s:132    .text:000000000000006c .L0 
     /tmp/cc4Whm0R.s:133    .text:000000000000006c .L0 
     /tmp/cc4Whm0R.s:135    .text:0000000000000070 .L0 
     /tmp/cc4Whm0R.s:137    .text:0000000000000070 .L0 
GAS LISTING /tmp/cc4Whm0R.s 			page 14


     /tmp/cc4Whm0R.s:138    .text:0000000000000070 .L0 
     /tmp/cc4Whm0R.s:141    .text:0000000000000078 .L0 
     /tmp/cc4Whm0R.s:142    .text:000000000000007c .L0 
     /tmp/cc4Whm0R.s:144    .text:0000000000000080 .L0 
     /tmp/cc4Whm0R.s:145    .text:0000000000000080 .L0 
     /tmp/cc4Whm0R.s:147    .text:0000000000000084 .L0 
     /tmp/cc4Whm0R.s:149    .text:0000000000000088 .L0 
     /tmp/cc4Whm0R.s:155    .text:0000000000000088 _Znam
     /tmp/cc4Whm0R.s:158    .text:0000000000000088 .L0 
     /tmp/cc4Whm0R.s:160    .text:0000000000000088 .L0 
     /tmp/cc4Whm0R.s:161    .text:000000000000008c .L0 
     /tmp/cc4Whm0R.s:164    .text:0000000000000094 .L0 
     /tmp/cc4Whm0R.s:165    .text:0000000000000094 .L0 
     /tmp/cc4Whm0R.s:167    .text:0000000000000098 .L0 
     /tmp/cc4Whm0R.s:169    .text:0000000000000098 .L0 
     /tmp/cc4Whm0R.s:170    .text:0000000000000098 .L0 
     /tmp/cc4Whm0R.s:173    .text:00000000000000a0 .L0 
     /tmp/cc4Whm0R.s:174    .text:00000000000000a4 .L0 
     /tmp/cc4Whm0R.s:176    .text:00000000000000a8 .L0 
     /tmp/cc4Whm0R.s:177    .text:00000000000000a8 .L0 
     /tmp/cc4Whm0R.s:179    .text:00000000000000ac .L0 
     /tmp/cc4Whm0R.s:181    .text:00000000000000b0 .L0 
     /tmp/cc4Whm0R.s:187    .text:00000000000000b0 _ZdlPv
     /tmp/cc4Whm0R.s:190    .text:00000000000000b0 .L0 
     /tmp/cc4Whm0R.s:194    .text:00000000000000b0 .L0 
     /tmp/cc4Whm0R.s:195    .text:00000000000000b4 .L0 
     /tmp/cc4Whm0R.s:198    .text:00000000000000bc .L0 
     /tmp/cc4Whm0R.s:199    .text:00000000000000bc .L0 
     /tmp/cc4Whm0R.s:201    .text:00000000000000c0 .L0 
     /tmp/cc4Whm0R.s:203    .text:00000000000000c0 .L0 
     /tmp/cc4Whm0R.s:204    .text:00000000000000c0 .L0 
     /tmp/cc4Whm0R.s:207    .text:00000000000000c8 .L0 
     /tmp/cc4Whm0R.s:208    .text:00000000000000cc .L0 
     /tmp/cc4Whm0R.s:210    .text:00000000000000d0 .L0 
     /tmp/cc4Whm0R.s:211    .text:00000000000000d0 .L0 
     /tmp/cc4Whm0R.s:213    .text:00000000000000d4 .L0 
     /tmp/cc4Whm0R.s:215    .text:00000000000000d8 .L0 
     /tmp/cc4Whm0R.s:228    .text:00000000000000d8 _ZN6ThreadD0Ev
     /tmp/cc4Whm0R.s:231    .text:00000000000000d8 .L0 
     /tmp/cc4Whm0R.s:233    .text:00000000000000d8 .L0 
     /tmp/cc4Whm0R.s:234    .text:00000000000000dc .L0 
     /tmp/cc4Whm0R.s:238    .text:00000000000000e8 .L0 
     /tmp/cc4Whm0R.s:239    .text:00000000000000e8 .L0 
     /tmp/cc4Whm0R.s:240    .text:00000000000000e8 .L0 
     /tmp/cc4Whm0R.s:242    .text:00000000000000ec .L0 
     /tmp/cc4Whm0R.s:245    .text:00000000000000f0 .L0 
     /tmp/cc4Whm0R.s:251    .text:0000000000000108 .L0 
     /tmp/cc4Whm0R.s:253    .text:000000000000010c .L0 
     /tmp/cc4Whm0R.s:254    .text:000000000000010c .L0 
     /tmp/cc4Whm0R.s:256    .text:0000000000000110 .L0 
     /tmp/cc4Whm0R.s:259    .text:0000000000000114 .L0 
     /tmp/cc4Whm0R.s:261    .text:0000000000000118 .L0 
     /tmp/cc4Whm0R.s:267    .text:0000000000000118 _ZdaPv
     /tmp/cc4Whm0R.s:270    .text:0000000000000118 .L0 
     /tmp/cc4Whm0R.s:274    .text:0000000000000118 .L0 
     /tmp/cc4Whm0R.s:275    .text:000000000000011c .L0 
     /tmp/cc4Whm0R.s:278    .text:0000000000000124 .L0 
GAS LISTING /tmp/cc4Whm0R.s 			page 15


     /tmp/cc4Whm0R.s:279    .text:0000000000000124 .L0 
     /tmp/cc4Whm0R.s:281    .text:0000000000000128 .L0 
     /tmp/cc4Whm0R.s:283    .text:0000000000000128 .L0 
     /tmp/cc4Whm0R.s:284    .text:0000000000000128 .L0 
     /tmp/cc4Whm0R.s:287    .text:0000000000000130 .L0 
     /tmp/cc4Whm0R.s:288    .text:0000000000000134 .L0 
     /tmp/cc4Whm0R.s:290    .text:0000000000000138 .L0 
     /tmp/cc4Whm0R.s:291    .text:0000000000000138 .L0 
     /tmp/cc4Whm0R.s:293    .text:000000000000013c .L0 
     /tmp/cc4Whm0R.s:295    .text:0000000000000140 .L0 
     /tmp/cc4Whm0R.s:308    .text:0000000000000140 _ZN6ThreadC2EPFvPvES0_
     /tmp/cc4Whm0R.s:311    .text:0000000000000140 .L0 
     /tmp/cc4Whm0R.s:313    .text:0000000000000140 .L0 
     /tmp/cc4Whm0R.s:314    .text:0000000000000144 .L0 
     /tmp/cc4Whm0R.s:317    .text:000000000000014c .L0 
     /tmp/cc4Whm0R.s:318    .text:000000000000014c .L0 
     /tmp/cc4Whm0R.s:320    .text:0000000000000150 .L0 
     /tmp/cc4Whm0R.s:323    .text:0000000000000150 .L0 
     /tmp/cc4Whm0R.s:326    .text:000000000000015c .L0 
     /tmp/cc4Whm0R.s:327    .text:000000000000015c .L0 
     /tmp/cc4Whm0R.s:329    .text:0000000000000160 .L0 
     /tmp/cc4Whm0R.s:330    .text:0000000000000160 .L0 
     /tmp/cc4Whm0R.s:336    .text:000000000000016c .L0 
     /tmp/cc4Whm0R.s:337    .text:0000000000000170 .L0 
     /tmp/cc4Whm0R.s:339    .text:0000000000000174 .L0 
     /tmp/cc4Whm0R.s:340    .text:0000000000000174 .L0 
     /tmp/cc4Whm0R.s:342    .text:0000000000000178 .L0 
     /tmp/cc4Whm0R.s:344    .text:000000000000017c .L0 
     /tmp/cc4Whm0R.s:308    .text:0000000000000140 _ZN6ThreadC1EPFvPvES0_
     /tmp/cc4Whm0R.s:352    .text:000000000000017c _ZN6ThreadC2Ev
     /tmp/cc4Whm0R.s:355    .text:000000000000017c .L0 
     /tmp/cc4Whm0R.s:357    .text:000000000000017c .L0 
     /tmp/cc4Whm0R.s:358    .text:0000000000000180 .L0 
     /tmp/cc4Whm0R.s:361    .text:0000000000000188 .L0 
     /tmp/cc4Whm0R.s:362    .text:0000000000000188 .L0 
     /tmp/cc4Whm0R.s:364    .text:000000000000018c .L0 
     /tmp/cc4Whm0R.s:367    .text:000000000000018c .L0 
     /tmp/cc4Whm0R.s:370    .text:0000000000000198 .L0 
     /tmp/cc4Whm0R.s:371    .text:0000000000000198 .L0 
     /tmp/cc4Whm0R.s:373    .text:000000000000019c .L0 
     /tmp/cc4Whm0R.s:374    .text:000000000000019c .L0 
     /tmp/cc4Whm0R.s:382    .text:00000000000001b4 .L0 
     /tmp/cc4Whm0R.s:383    .text:00000000000001b8 .L0 
     /tmp/cc4Whm0R.s:385    .text:00000000000001bc .L0 
     /tmp/cc4Whm0R.s:386    .text:00000000000001bc .L0 
     /tmp/cc4Whm0R.s:388    .text:00000000000001c0 .L0 
     /tmp/cc4Whm0R.s:390    .text:00000000000001c4 .L0 
     /tmp/cc4Whm0R.s:352    .text:000000000000017c _ZN6ThreadC1Ev
     /tmp/cc4Whm0R.s:398    .text:00000000000001c4 _ZN6Thread8dispatchEv
     /tmp/cc4Whm0R.s:401    .text:00000000000001c4 .L0 
     /tmp/cc4Whm0R.s:402    .text:00000000000001c4 .L0 
     /tmp/cc4Whm0R.s:403    .text:00000000000001c8 .L0 
     /tmp/cc4Whm0R.s:406    .text:00000000000001d0 .L0 
     /tmp/cc4Whm0R.s:407    .text:00000000000001d0 .L0 
     /tmp/cc4Whm0R.s:409    .text:00000000000001d4 .L0 
     /tmp/cc4Whm0R.s:411    .text:00000000000001d4 .L0 
     /tmp/cc4Whm0R.s:412    .text:00000000000001d4 .L0 
GAS LISTING /tmp/cc4Whm0R.s 			page 16


     /tmp/cc4Whm0R.s:415    .text:00000000000001dc .L0 
     /tmp/cc4Whm0R.s:416    .text:00000000000001e0 .L0 
     /tmp/cc4Whm0R.s:418    .text:00000000000001e4 .L0 
     /tmp/cc4Whm0R.s:419    .text:00000000000001e4 .L0 
     /tmp/cc4Whm0R.s:421    .text:00000000000001e8 .L0 
     /tmp/cc4Whm0R.s:423    .text:00000000000001ec .L0 
     /tmp/cc4Whm0R.s:429    .text:00000000000001ec _ZN6Thread5startEv
     /tmp/cc4Whm0R.s:432    .text:00000000000001ec .L0 
     /tmp/cc4Whm0R.s:434    .text:00000000000001ec .L0 
     /tmp/cc4Whm0R.s:435    .text:00000000000001f0 .L0 
     /tmp/cc4Whm0R.s:439    .text:00000000000001fc .L0 
     /tmp/cc4Whm0R.s:440    .text:00000000000001fc .L0 
     /tmp/cc4Whm0R.s:441    .text:00000000000001fc .L0 
     /tmp/cc4Whm0R.s:443    .text:0000000000000200 .L0 
     /tmp/cc4Whm0R.s:446    .text:0000000000000204 .L0 
     /tmp/cc4Whm0R.s:447    .text:0000000000000204 .L0 
     /tmp/cc4Whm0R.s:449    .text:0000000000000208 .L0 
     /tmp/cc4Whm0R.s:453    .text:000000000000020c .L0 
     /tmp/cc4Whm0R.s:454    .text:000000000000020c .L0 
     /tmp/cc4Whm0R.s:457    .text:0000000000000214 .L0 
     /tmp/cc4Whm0R.s:458    .text:0000000000000214 .L0 
     /tmp/cc4Whm0R.s:460    .text:000000000000021c .L0 
     /tmp/cc4Whm0R.s:461    .text:000000000000021c .L0 
     /tmp/cc4Whm0R.s:463    .text:0000000000000220 .L0 
     /tmp/cc4Whm0R.s:464    .text:0000000000000220 .L0 
     /tmp/cc4Whm0R.s:466    .text:0000000000000224 .L0 
     /tmp/cc4Whm0R.s:469    .text:0000000000000228 .L0 
     /tmp/cc4Whm0R.s:473    .text:000000000000022c .L0 
     /tmp/cc4Whm0R.s:475    .text:000000000000022c .L0 
     /tmp/cc4Whm0R.s:476    .text:000000000000022c .L0 
     /tmp/cc4Whm0R.s:480    .text:0000000000000238 .L0 
     /tmp/cc4Whm0R.s:486    .text:000000000000023c .L0 
     /tmp/cc4Whm0R.s:487    .text:000000000000023c .L0 
     /tmp/cc4Whm0R.s:489    .text:0000000000000240 .L0 
     /tmp/cc4Whm0R.s:492    .text:0000000000000244 .L0 
     /tmp/cc4Whm0R.s:32     .text._ZN6Thread3runEv:0000000000000018 .L0 
     /tmp/cc4Whm0R.s:511    .text:0000000000000244 .L0 
     /tmp/cc4Whm0R.s:91     .text:000000000000003c .L0 
     /tmp/cc4Whm0R.s:323    .text:0000000000000150 .L0 
     /tmp/cc4Whm0R.s:367    .text:000000000000018c .L0 
     /tmp/cc4Whm0R.s:375    .text:00000000000001a0 .L0 
     /tmp/cc4Whm0R.s:472    .text:000000000000022c .L26
     /tmp/cc4Whm0R.s:451    .text:000000000000020c .L24
     /tmp/cc4Whm0R.s:1640   .debug_abbrev:0000000000000000 .Ldebug_abbrev0
     /tmp/cc4Whm0R.s:3141   .debug_str:000000000000050e .LASF90
     /tmp/cc4Whm0R.s:3115   .debug_str:000000000000043d .LASF91
     /tmp/cc4Whm0R.s:2975   .debug_str:0000000000000009 .LASF92
     /tmp/cc4Whm0R.s:2963   .debug_ranges:0000000000000000 .Ldebug_ranges0
     /tmp/cc4Whm0R.s:2971   .debug_line:0000000000000000 .Ldebug_line0
     /tmp/cc4Whm0R.s:3075   .debug_str:0000000000000332 .LASF0
     /tmp/cc4Whm0R.s:3085   .debug_str:000000000000036f .LASF1
     /tmp/cc4Whm0R.s:3063   .debug_str:00000000000002e0 .LASF2
     /tmp/cc4Whm0R.s:3041   .debug_str:0000000000000267 .LASF4
     /tmp/cc4Whm0R.s:3127   .debug_str:000000000000048a .LASF3
     /tmp/cc4Whm0R.s:2991   .debug_str:0000000000000093 .LASF5
     /tmp/cc4Whm0R.s:3091   .debug_str:00000000000003a5 .LASF6
     /tmp/cc4Whm0R.s:3073   .debug_str:000000000000031f .LASF7
GAS LISTING /tmp/cc4Whm0R.s 			page 17


     /tmp/cc4Whm0R.s:3153   .debug_str:0000000000000622 .LASF8
     /tmp/cc4Whm0R.s:3031   .debug_str:00000000000001e7 .LASF9
     /tmp/cc4Whm0R.s:3097   .debug_str:00000000000003d6 .LASF10
     /tmp/cc4Whm0R.s:3143   .debug_str:00000000000005d2 .LASF11
     /tmp/cc4Whm0R.s:2993   .debug_str:000000000000009a .LASF12
     /tmp/cc4Whm0R.s:2977   .debug_str:0000000000000039 .LASF13
     /tmp/cc4Whm0R.s:2999   .debug_str:00000000000000c8 .LASF14
     /tmp/cc4Whm0R.s:3121   .debug_str:0000000000000467 .LASF15
     /tmp/cc4Whm0R.s:3007   .debug_str:00000000000000f8 .LASF16
     /tmp/cc4Whm0R.s:3095   .debug_str:00000000000003cc .LASF17
     /tmp/cc4Whm0R.s:3059   .debug_str:00000000000002c1 .LASF24
     /tmp/cc4Whm0R.s:3145   .debug_str:00000000000005e1 .LASF18
     /tmp/cc4Whm0R.s:3071   .debug_str:0000000000000315 .LASF20
     /tmp/cc4Whm0R.s:3159   .debug_str:0000000000000651 .LASF21
     /tmp/cc4Whm0R.s:3093   .debug_str:00000000000003b8 .LASF19
     /tmp/cc4Whm0R.s:3135   .debug_str:00000000000004df .LASF22
     /tmp/cc4Whm0R.s:3161   .debug_str:0000000000000666 .LASF46
     /tmp/cc4Whm0R.s:3037   .debug_str:000000000000022b .LASF93
     /tmp/cc4Whm0R.s:2997   .debug_str:00000000000000b0 .LASF94
     /tmp/cc4Whm0R.s:3055   .debug_str:00000000000002af .LASF95
     /tmp/cc4Whm0R.s:2981   .debug_str:000000000000004f .LASF96
     /tmp/cc4Whm0R.s:3011   .debug_str:000000000000011d .LASF23
     /tmp/cc4Whm0R.s:3107   .debug_str:0000000000000414 .LASF25
     /tmp/cc4Whm0R.s:3165   .debug_str:0000000000000688 .LASF26
     /tmp/cc4Whm0R.s:3137   .debug_str:00000000000004f3 .LASF27
     /tmp/cc4Whm0R.s:3131   .debug_str:00000000000004a6 .LASF36
     /tmp/cc4Whm0R.s:3111   .debug_str:0000000000000425 .LASF38
     /tmp/cc4Whm0R.s:3067   .debug_str:00000000000002fa .LASF28
     /tmp/cc4Whm0R.s:3029   .debug_str:00000000000001d0 .LASF29
     /tmp/cc4Whm0R.s:3065   .debug_str:00000000000002ee .LASF30
     /tmp/cc4Whm0R.s:3177   .debug_str:00000000000006f5 .LASF31
     /tmp/cc4Whm0R.s:3051   .debug_str:0000000000000297 .LASF32
     /tmp/cc4Whm0R.s:3167   .debug_str:0000000000000695 .LASF33
     /tmp/cc4Whm0R.s:3109   .debug_str:0000000000000420 .LASF97
     /tmp/cc4Whm0R.s:3017   .debug_str:000000000000013d .LASF34
     /tmp/cc4Whm0R.s:3133   .debug_str:00000000000004b6 .LASF35
     /tmp/cc4Whm0R.s:3113   .debug_str:0000000000000432 .LASF37
     /tmp/cc4Whm0R.s:2983   .debug_str:0000000000000057 .LASF39
     /tmp/cc4Whm0R.s:3081   .debug_str:0000000000000357 .LASF40
     /tmp/cc4Whm0R.s:3023   .debug_str:000000000000017c .LASF41
     /tmp/cc4Whm0R.s:3117   .debug_str:0000000000000451 .LASF42
     /tmp/cc4Whm0R.s:3069   .debug_str:0000000000000305 .LASF44
     /tmp/cc4Whm0R.s:3077   .debug_str:000000000000033f .LASF43
     /tmp/cc4Whm0R.s:3015   .debug_str:000000000000012a .LASF45
     /tmp/cc4Whm0R.s:3013   .debug_str:0000000000000122 .LASF47
     /tmp/cc4Whm0R.s:3171   .debug_str:00000000000006c5 .LASF98
     /tmp/cc4Whm0R.s:3047   .debug_str:000000000000028a .LASF48
     /tmp/cc4Whm0R.s:3001   .debug_str:00000000000000d4 .LASF49
     /tmp/cc4Whm0R.s:3049   .debug_str:000000000000028f .LASF50
     /tmp/cc4Whm0R.s:3045   .debug_str:0000000000000281 .LASF51
     /tmp/cc4Whm0R.s:3163   .debug_str:000000000000067a .LASF52
     /tmp/cc4Whm0R.s:3039   .debug_str:000000000000023f .LASF99
     /tmp/cc4Whm0R.s:3053   .debug_str:00000000000002a4 .LASF100
     /tmp/cc4Whm0R.s:2985   .debug_str:000000000000007a .LASF53
     /tmp/cc4Whm0R.s:2973   .debug_str:0000000000000000 .LASF54
     /tmp/cc4Whm0R.s:3147   .debug_str:00000000000005f6 .LASF55
     /tmp/cc4Whm0R.s:3087   .debug_str:0000000000000382 .LASF101
GAS LISTING /tmp/cc4Whm0R.s 			page 18


     /tmp/cc4Whm0R.s:3061   .debug_str:00000000000002d3 .LASF102
     /tmp/cc4Whm0R.s:3101   .debug_str:00000000000003ef .LASF56
     /tmp/cc4Whm0R.s:2989   .debug_str:000000000000008b .LASF57
     /tmp/cc4Whm0R.s:3079   .debug_str:0000000000000348 .LASF58
     /tmp/cc4Whm0R.s:3083   .debug_str:0000000000000369 .LASF59
     /tmp/cc4Whm0R.s:3027   .debug_str:00000000000001bd .LASF60
     /tmp/cc4Whm0R.s:3021   .debug_str:0000000000000166 .LASF61
     /tmp/cc4Whm0R.s:3151   .debug_str:0000000000000613 .LASF62
     /tmp/cc4Whm0R.s:3173   .debug_str:00000000000006db .LASF103
     /tmp/cc4Whm0R.s:3057   .debug_str:00000000000002b9 .LASF63
     /tmp/cc4Whm0R.s:3175   .debug_str:00000000000006ec .LASF64
     /tmp/cc4Whm0R.s:3155   .debug_str:0000000000000632 .LASF104
     /tmp/cc4Whm0R.s:3105   .debug_str:000000000000040f .LASF65
     /tmp/cc4Whm0R.s:3099   .debug_str:00000000000003e5 .LASF66
     /tmp/cc4Whm0R.s:3009   .debug_str:000000000000010e .LASF67
     /tmp/cc4Whm0R.s:229    .text:00000000000000d8 .LFB37
     /tmp/cc4Whm0R.s:262    .text:0000000000000118 .LFE37
     /tmp/cc4Whm0R.s:2744   .debug_loc:0000000000000000 .LLST6
     /tmp/cc4Whm0R.s:246    .text:00000000000000f8 .LVL13
     /tmp/cc4Whm0R.s:249    .text:0000000000000104 .LVL14
     /tmp/cc4Whm0R.s:3139   .debug_str:00000000000004ff .LASF68
     /tmp/cc4Whm0R.s:75     .text:000000000000002c .LFB35
     /tmp/cc4Whm0R.s:108    .text:0000000000000060 .LFE35
     /tmp/cc4Whm0R.s:2762   .debug_loc:000000000000004c .LLST2
     /tmp/cc4Whm0R.s:96     .text:0000000000000050 .LVL5
     /tmp/cc4Whm0R.s:430    .text:00000000000001ec .LFB33
     /tmp/cc4Whm0R.s:493    .text:0000000000000244 .LFE33
     /tmp/cc4Whm0R.s:2776   .debug_loc:0000000000000085 .LLST12
     /tmp/cc4Whm0R.s:482    .text:000000000000023c .LBB7
     /tmp/cc4Whm0R.s:491    .text:0000000000000244 .LBE7
     /tmp/cc4Whm0R.s:478    .text:0000000000000238 .LVL29
     /tmp/cc4Whm0R.s:399    .text:00000000000001c4 .LFB32
     /tmp/cc4Whm0R.s:424    .text:00000000000001ec .LFE32
     /tmp/cc4Whm0R.s:413    .text:00000000000001dc .LVL24
     /tmp/cc4Whm0R.s:3157   .debug_str:0000000000000642 .LASF69
     /tmp/cc4Whm0R.s:353    .text:000000000000017c .LFB30
     /tmp/cc4Whm0R.s:391    .text:00000000000001c4 .LFE30
     /tmp/cc4Whm0R.s:2798   .debug_loc:00000000000000e4 .LLST11
     /tmp/cc4Whm0R.s:379    .text:00000000000001b4 .LVL23
     /tmp/cc4Whm0R.s:3179   .debug_str:000000000000070c .LASF70
     /tmp/cc4Whm0R.s:3033   .debug_str:00000000000001f5 .LASF71
     /tmp/cc4Whm0R.s:37     .text:0000000000000000 .LFB28
     /tmp/cc4Whm0R.s:69     .text:000000000000002c .LFE28
     /tmp/cc4Whm0R.s:2816   .debug_loc:0000000000000130 .LLST0
     /tmp/cc4Whm0R.s:2830   .debug_loc:0000000000000169 .LLST1
     /tmp/cc4Whm0R.s:58     .text:000000000000001c .LVL3
     /tmp/cc4Whm0R.s:3025   .debug_str:00000000000001a6 .LASF72
     /tmp/cc4Whm0R.s:309    .text:0000000000000140 .LFB26
     /tmp/cc4Whm0R.s:345    .text:000000000000017c .LFE26
     /tmp/cc4Whm0R.s:2844   .debug_loc:00000000000001a2 .LLST8
     /tmp/cc4Whm0R.s:2864   .debug_loc:00000000000001f0 .LLST9
     /tmp/cc4Whm0R.s:2878   .debug_loc:0000000000000229 .LLST10
     /tmp/cc4Whm0R.s:333    .text:000000000000016c .LVL20
     /tmp/cc4Whm0R.s:3043   .debug_str:000000000000026e .LASF73
     /tmp/cc4Whm0R.s:3125   .debug_str:0000000000000483 .LASF74
     /tmp/cc4Whm0R.s:268    .text:0000000000000118 .LFB24
     /tmp/cc4Whm0R.s:296    .text:0000000000000140 .LFE24
GAS LISTING /tmp/cc4Whm0R.s 			page 19


     /tmp/cc4Whm0R.s:2892   .debug_loc:0000000000000262 .LLST7
     /tmp/cc4Whm0R.s:285    .text:0000000000000130 .LVL17
     /tmp/cc4Whm0R.s:3181   .debug_str:0000000000000714 .LASF75
     /tmp/cc4Whm0R.s:188    .text:00000000000000b0 .LFB23
     /tmp/cc4Whm0R.s:216    .text:00000000000000d8 .LFE23
     /tmp/cc4Whm0R.s:2906   .debug_loc:000000000000029b .LLST5
     /tmp/cc4Whm0R.s:205    .text:00000000000000c8 .LVL11
     /tmp/cc4Whm0R.s:3119   .debug_str:0000000000000457 .LASF76
     /tmp/cc4Whm0R.s:2979   .debug_str:0000000000000049 .LASF77
     /tmp/cc4Whm0R.s:156    .text:0000000000000088 .LFB22
     /tmp/cc4Whm0R.s:182    .text:00000000000000b0 .LFE22
     /tmp/cc4Whm0R.s:2920   .debug_loc:00000000000002d4 .LLST4
     /tmp/cc4Whm0R.s:171    .text:00000000000000a0 .LVL9
     /tmp/cc4Whm0R.s:3123   .debug_str:000000000000047d .LASF78
     /tmp/cc4Whm0R.s:124    .text:0000000000000060 .LFB21
     /tmp/cc4Whm0R.s:150    .text:0000000000000088 .LFE21
     /tmp/cc4Whm0R.s:2934   .debug_loc:000000000000030d .LLST3
     /tmp/cc4Whm0R.s:139    .text:0000000000000078 .LVL7
     /tmp/cc4Whm0R.s:11     .text._ZN6Thread3runEv:0000000000000000 .LFB20
     /tmp/cc4Whm0R.s:30     .text._ZN6Thread3runEv:0000000000000018 .LFE20
     /tmp/cc4Whm0R.s:2995   .debug_str:00000000000000aa .LASF79
     /tmp/cc4Whm0R.s:3089   .debug_str:0000000000000394 .LASF80
     /tmp/cc4Whm0R.s:2987   .debug_str:000000000000007f .LASF82
     /tmp/cc4Whm0R.s:3019   .debug_str:0000000000000151 .LASF81
     /tmp/cc4Whm0R.s:3003   .debug_str:00000000000000da .LASF83
     /tmp/cc4Whm0R.s:3035   .debug_str:0000000000000202 .LASF84
     /tmp/cc4Whm0R.s:3149   .debug_str:00000000000005fd .LASF85
     /tmp/cc4Whm0R.s:3169   .debug_str:00000000000006b7 .LASF86
     /tmp/cc4Whm0R.s:3103   .debug_str:0000000000000406 .LASF87
     /tmp/cc4Whm0R.s:3005   .debug_str:00000000000000ea .LASF88
     /tmp/cc4Whm0R.s:3129   .debug_str:000000000000049c .LASF89
     /tmp/cc4Whm0R.s:232    .text:00000000000000d8 .LVL12
     /tmp/cc4Whm0R.s:257    .text:0000000000000110 .LVL15
     /tmp/cc4Whm0R.s:80     .text:000000000000002c .LVL4
     /tmp/cc4Whm0R.s:433    .text:00000000000001ec .LVL25
     /tmp/cc4Whm0R.s:450    .text:000000000000020c .LVL26
     /tmp/cc4Whm0R.s:467    .text:0000000000000224 .LVL27
     /tmp/cc4Whm0R.s:471    .text:000000000000022c .LVL28
     /tmp/cc4Whm0R.s:356    .text:000000000000017c .LVL21
     /tmp/cc4Whm0R.s:377    .text:00000000000001ac .LVL22
     /tmp/cc4Whm0R.s:41     .text:0000000000000000 .LVL1
     /tmp/cc4Whm0R.s:51     .text:0000000000000010 .LVL2
     /tmp/cc4Whm0R.s:312    .text:0000000000000140 .LVL18
     /tmp/cc4Whm0R.s:331    .text:0000000000000164 .LVL19
     /tmp/cc4Whm0R.s:273    .text:0000000000000118 .LVL16
     /tmp/cc4Whm0R.s:193    .text:00000000000000b0 .LVL10
     /tmp/cc4Whm0R.s:159    .text:0000000000000088 .LVL8
     /tmp/cc4Whm0R.s:127    .text:0000000000000060 .LVL6
     /tmp/cc4Whm0R.s:512    .debug_info:0000000000000000 .Ldebug_info0
     /tmp/cc4Whm0R.s:5      .text:0000000000000000 .Ltext0
     /tmp/cc4Whm0R.s:507    .text:0000000000000244 .Letext0
     /tmp/cc4Whm0R.s:111    .gcc_except_table:0000000000000000 .LLSDA35
     /tmp/cc4Whm0R.s:218    .gcc_except_table:0000000000000004 .LLSDA23
     /tmp/cc4Whm0R.s:298    .gcc_except_table:0000000000000008 .LLSDA24

UNDEFINED SYMBOLS
_Z11thread_exitv
GAS LISTING /tmp/cc4Whm0R.s 			page 20


__gxx_personality_v0
_Z9mem_allocm
_Z8mem_freePv
_Z21thread_create_pendingPP3TCBPFvPvES2_
_Z15thread_dispatchv
_ZN9Scheduler3putEP3TCB
