GAS LISTING /tmp/ccQZ2wWP.s 			page 1


   1              		.file	"syscall_c.cpp"
   2              		.option pic
   3              		.option norelax
   4              		.text
   5              	.Ltext0:
   6              		.align	2
   7              		.globl	_Z9mem_allocm
   9              	_Z9mem_allocm:
  10              	.LFB20:
  11              		.file 1 "src/syscall_c.cpp"
   1:src/syscall_c.cpp **** //
   2:src/syscall_c.cpp **** // Created by os on 9/5/22.
   3:src/syscall_c.cpp **** //
   4:src/syscall_c.cpp **** 
   5:src/syscall_c.cpp **** #include "../h/syscall_c.h"
   6:src/syscall_c.cpp **** #include "../h/tcb.hpp"
   7:src/syscall_c.cpp **** 
   8:src/syscall_c.cpp **** class TCB;
   9:src/syscall_c.cpp **** 
  10:src/syscall_c.cpp **** void* mem_alloc (size_t size){ // size u bajtovima
  12              		.loc 1 10 30
  13              		.cfi_startproc
  14              	.LVL0:
  15 0000 130101FF 		addi	sp,sp,-16
  16              		.cfi_def_cfa_offset 16
  17 0004 23348100 		sd	s0,8(sp)
  18              		.cfi_offset 8, -8
  19 0008 13040101 		addi	s0,sp,16
  20              		.cfi_def_cfa 8, 0
  11:src/syscall_c.cpp ****     size_t blocks = 0;
  21              		.loc 1 11 5
  22              	.LVL1:
  12:src/syscall_c.cpp ****     blocks = size/ MEM_BLOCK_SIZE + (size % MEM_BLOCK_SIZE? 1:0);
  23              		.loc 1 12 5
  24              		.loc 1 12 18 is_stmt 0
  25 000c 93576500 		srli	a5,a0,6
  26              		.loc 1 12 43
  27 0010 1375F503 		andi	a0,a0,63
  28              	.LVL2:
  29              		.loc 1 12 59
  30 0014 63040500 		beqz	a0,.L2
  31 0018 13051000 		li	a0,1
  32              	.L2:
  33              		.loc 1 12 12 discriminator 4
  34 001c 3385A700 		add	a0,a5,a0
  35              	.LVL3:
  13:src/syscall_c.cpp ****     //size_t nsize = blocks*MEM_BLOCK_SIZE;
  14:src/syscall_c.cpp ****     void* ret = nullptr;
  36              		.loc 1 14 5 is_stmt 1 discriminator 4
  15:src/syscall_c.cpp ****     __asm__ volatile("mv a1, %0" :: "r" (blocks));
  37              		.loc 1 15 5 discriminator 4
  38              		.loc 1 15 50 is_stmt 0 discriminator 4
  39              	#APP
  40              	# 15 "src/syscall_c.cpp" 1
  16              	    __asm__ volatile("li a0, 0x01");
  41              		mv a1, a0
  42              	# 0 "" 2
GAS LISTING /tmp/ccQZ2wWP.s 			page 2


  43              		.loc 1 16 5 is_stmt 1 discriminator 4
  44              		.loc 1 16 36 is_stmt 0 discriminator 4
  45              	# 16 "src/syscall_c.cpp" 1
  17              	    __asm__ volatile("ecall"); // size u blokovima
  46              		li a0, 0x01
  47              	# 0 "" 2
  48              		.loc 1 17 5 is_stmt 1 discriminator 4
  49              		.loc 1 17 30 is_stmt 0 discriminator 4
  50              	# 17 "src/syscall_c.cpp" 1
  18              	    __asm__ volatile("mv %0, a0" : "=r" (ret));
  51              		ecall
  52              	# 0 "" 2
  53              		.loc 1 18 5 is_stmt 1 discriminator 4
  54              		.loc 1 18 47 is_stmt 0 discriminator 4
  55              	# 18 "src/syscall_c.cpp" 1
  19              	    //ret = memoryAllocator::allocate(blocks);
  56              		mv a0, a0
  57              	# 0 "" 2
  58              	.LVL4:
  20:src/syscall_c.cpp ****     return ret;
  59              		.loc 1 20 5 is_stmt 1 discriminator 4
  21:src/syscall_c.cpp **** }
  60              		.loc 1 21 1 is_stmt 0 discriminator 4
  61              	#NO_APP
  62 0030 03348100 		ld	s0,8(sp)
  63              		.cfi_restore 8
  64              		.cfi_def_cfa 2, 16
  65 0034 13010101 		addi	sp,sp,16
  66              		.cfi_def_cfa_offset 0
  67 0038 67800000 		jr	ra
  68              		.cfi_endproc
  69              	.LFE20:
  71              		.align	2
  72              		.globl	_Z8mem_freePv
  74              	_Z8mem_freePv:
  75              	.LFB21:
  22:src/syscall_c.cpp **** 
  23:src/syscall_c.cpp **** int mem_free(void* addr){
  76              		.loc 1 23 25 is_stmt 1
  77              		.cfi_startproc
  78              	.LVL5:
  79 003c 130101FF 		addi	sp,sp,-16
  80              		.cfi_def_cfa_offset 16
  81 0040 23348100 		sd	s0,8(sp)
  82              		.cfi_offset 8, -8
  83 0044 13040101 		addi	s0,sp,16
  84              		.cfi_def_cfa 8, 0
  24:src/syscall_c.cpp ****     int ret;
  85              		.loc 1 24 5
  25:src/syscall_c.cpp ****     __asm__ volatile("mv a1, %0" :: "r" (addr));
  86              		.loc 1 25 5
  87              		.loc 1 25 48 is_stmt 0
  88              	#APP
  89              	# 25 "src/syscall_c.cpp" 1
  26              	    __asm__ volatile("li a0, 0x02");
  90              		mv a1, a0
  91              	# 0 "" 2
GAS LISTING /tmp/ccQZ2wWP.s 			page 3


  92              		.loc 1 26 5 is_stmt 1
  93              		.loc 1 26 36 is_stmt 0
  94              	# 26 "src/syscall_c.cpp" 1
  27              	    __asm__ volatile("ecall");
  95              		li a0, 0x02
  96              	# 0 "" 2
  97              		.loc 1 27 5 is_stmt 1
  98              		.loc 1 27 30 is_stmt 0
  99              	# 27 "src/syscall_c.cpp" 1
  28              	    __asm__ volatile("mv %0, a0" : "=r" (ret));
 100              		ecall
 101              	# 0 "" 2
 102              		.loc 1 28 5 is_stmt 1
 103              		.loc 1 28 47 is_stmt 0
 104              	# 28 "src/syscall_c.cpp" 1
  29              	    return ret;
 105              		mv a0, a0
 106              	# 0 "" 2
 107              	.LVL6:
 108              		.loc 1 29 5 is_stmt 1
  30:src/syscall_c.cpp **** };
 109              		.loc 1 30 1 is_stmt 0
 110              	#NO_APP
 111 0058 1B050500 		sext.w	a0,a0
 112 005c 03348100 		ld	s0,8(sp)
 113              		.cfi_restore 8
 114              		.cfi_def_cfa 2, 16
 115 0060 13010101 		addi	sp,sp,16
 116              		.cfi_def_cfa_offset 0
 117 0064 67800000 		jr	ra
 118              		.cfi_endproc
 119              	.LFE21:
 121              		.align	2
 122              		.globl	_Z13thread_createPP3TCBPFvPvES2_
 124              	_Z13thread_createPP3TCBPFvPvES2_:
 125              	.LFB22:
  31:src/syscall_c.cpp **** 
  32:src/syscall_c.cpp **** 
  33:src/syscall_c.cpp **** int thread_create (thread_t* handle, void(*start_routine)(void*), void* arg){
 126              		.loc 1 33 77 is_stmt 1
 127              		.cfi_startproc
 128              	.LVL7:
 129 0068 130101FF 		addi	sp,sp,-16
 130              		.cfi_def_cfa_offset 16
 131 006c 23348100 		sd	s0,8(sp)
 132              		.cfi_offset 8, -8
 133 0070 13040101 		addi	s0,sp,16
 134              		.cfi_def_cfa 8, 0
  34:src/syscall_c.cpp ****     //stack = MemoryAllocator::allocate(1024*sizeof(uint64))
  35:src/syscall_c.cpp ****     __asm__ volatile("mv a3, %0" :: "r" (arg));
 135              		.loc 1 35 5
 136              		.loc 1 35 47 is_stmt 0
 137              	#APP
 138              	# 35 "src/syscall_c.cpp" 1
  36              	    __asm__ volatile("mv a2, %0" :: "r" (start_routine));
 139              		mv a3, a2
 140              	# 0 "" 2
GAS LISTING /tmp/ccQZ2wWP.s 			page 4


 141              		.loc 1 36 5 is_stmt 1
 142              		.loc 1 36 57 is_stmt 0
 143              	# 36 "src/syscall_c.cpp" 1
  37              	    __asm__ volatile("mv a1, %0" :: "r" (handle));
 144              		mv a2, a1
 145              	# 0 "" 2
 146              		.loc 1 37 5 is_stmt 1
 147              		.loc 1 37 50 is_stmt 0
 148              	# 37 "src/syscall_c.cpp" 1
  38              	    __asm__ volatile("li a0, 0x11");
 149              		mv a1, a0
 150              	# 0 "" 2
 151              		.loc 1 38 5 is_stmt 1
 152              		.loc 1 38 36 is_stmt 0
 153              	# 38 "src/syscall_c.cpp" 1
  39              	    __asm__ volatile("ecall");
 154              		li a0, 0x11
 155              	# 0 "" 2
 156              		.loc 1 39 5 is_stmt 1
 157              		.loc 1 39 30 is_stmt 0
 158              	# 39 "src/syscall_c.cpp" 1
  40              	    int ret;
 159              		ecall
 160              	# 0 "" 2
 161              		.loc 1 40 5 is_stmt 1
  41:src/syscall_c.cpp ****     __asm__ volatile("mv %0, a0" : "=r" (ret));
 162              		.loc 1 41 5
 163              		.loc 1 41 47 is_stmt 0
 164              	# 41 "src/syscall_c.cpp" 1
  42              	    return ret;
 165              		mv a0, a0
 166              	# 0 "" 2
 167              	.LVL8:
 168              		.loc 1 42 5 is_stmt 1
  43:src/syscall_c.cpp **** }
 169              		.loc 1 43 1 is_stmt 0
 170              	#NO_APP
 171 008c 1B050500 		sext.w	a0,a0
 172 0090 03348100 		ld	s0,8(sp)
 173              		.cfi_restore 8
 174              		.cfi_def_cfa 2, 16
 175 0094 13010101 		addi	sp,sp,16
 176              		.cfi_def_cfa_offset 0
 177 0098 67800000 		jr	ra
 178              		.cfi_endproc
 179              	.LFE22:
 181              		.align	2
 182              		.globl	_Z21thread_create_pendingPP3TCBPFvPvES2_
 184              	_Z21thread_create_pendingPP3TCBPFvPvES2_:
 185              	.LFB23:
  44:src/syscall_c.cpp **** 
  45:src/syscall_c.cpp **** int thread_create_pending(thread_t* handle, void(*start_routine)(void*), void* arg){
 186              		.loc 1 45 84 is_stmt 1
 187              		.cfi_startproc
 188              	.LVL9:
 189 009c 130101FF 		addi	sp,sp,-16
 190              		.cfi_def_cfa_offset 16
GAS LISTING /tmp/ccQZ2wWP.s 			page 5


 191 00a0 23348100 		sd	s0,8(sp)
 192              		.cfi_offset 8, -8
 193 00a4 13040101 		addi	s0,sp,16
 194              		.cfi_def_cfa 8, 0
  46:src/syscall_c.cpp ****     //stack = MemoryAllocator::allocate(1024*sizeof(uint64))
  47:src/syscall_c.cpp ****     __asm__ volatile("mv a3, %0" :: "r" (arg));
 195              		.loc 1 47 5
 196              		.loc 1 47 47 is_stmt 0
 197              	#APP
 198              	# 47 "src/syscall_c.cpp" 1
  48              	    __asm__ volatile("mv a2, %0" :: "r" (start_routine));
 199              		mv a3, a2
 200              	# 0 "" 2
 201              		.loc 1 48 5 is_stmt 1
 202              		.loc 1 48 57 is_stmt 0
 203              	# 48 "src/syscall_c.cpp" 1
  49              	    __asm__ volatile("mv a1, %0" :: "r" (handle));
 204              		mv a2, a1
 205              	# 0 "" 2
 206              		.loc 1 49 5 is_stmt 1
 207              		.loc 1 49 50 is_stmt 0
 208              	# 49 "src/syscall_c.cpp" 1
  50              	    __asm__ volatile("li a0, 0x14");
 209              		mv a1, a0
 210              	# 0 "" 2
 211              		.loc 1 50 5 is_stmt 1
 212              		.loc 1 50 36 is_stmt 0
 213              	# 50 "src/syscall_c.cpp" 1
  51              	    __asm__ volatile("ecall");
 214              		li a0, 0x14
 215              	# 0 "" 2
 216              		.loc 1 51 5 is_stmt 1
 217              		.loc 1 51 30 is_stmt 0
 218              	# 51 "src/syscall_c.cpp" 1
  52              	    int ret;
 219              		ecall
 220              	# 0 "" 2
 221              		.loc 1 52 5 is_stmt 1
  53:src/syscall_c.cpp ****     __asm__ volatile("mv %0, a0" : "=r" (ret));
 222              		.loc 1 53 5
 223              		.loc 1 53 47 is_stmt 0
 224              	# 53 "src/syscall_c.cpp" 1
  54              	    return ret;
 225              		mv a0, a0
 226              	# 0 "" 2
 227              	.LVL10:
 228              		.loc 1 54 5 is_stmt 1
  55:src/syscall_c.cpp **** }
 229              		.loc 1 55 1 is_stmt 0
 230              	#NO_APP
 231 00c0 1B050500 		sext.w	a0,a0
 232 00c4 03348100 		ld	s0,8(sp)
 233              		.cfi_restore 8
 234              		.cfi_def_cfa 2, 16
 235 00c8 13010101 		addi	sp,sp,16
 236              		.cfi_def_cfa_offset 0
 237 00cc 67800000 		jr	ra
GAS LISTING /tmp/ccQZ2wWP.s 			page 6


 238              		.cfi_endproc
 239              	.LFE23:
 241              		.align	2
 242              		.globl	_Z11thread_exitv
 244              	_Z11thread_exitv:
 245              	.LFB24:
  56:src/syscall_c.cpp **** 
  57:src/syscall_c.cpp **** int thread_exit() {
 246              		.loc 1 57 19 is_stmt 1
 247              		.cfi_startproc
 248 00d0 130101FF 		addi	sp,sp,-16
 249              		.cfi_def_cfa_offset 16
 250 00d4 23348100 		sd	s0,8(sp)
 251              		.cfi_offset 8, -8
 252 00d8 13040101 		addi	s0,sp,16
 253              		.cfi_def_cfa 8, 0
  58:src/syscall_c.cpp ****     int ret;
 254              		.loc 1 58 5
  59:src/syscall_c.cpp ****     __asm__ volatile("li a0, 0x12");
 255              		.loc 1 59 5
 256              		.loc 1 59 36 is_stmt 0
 257              	#APP
 258              	# 59 "src/syscall_c.cpp" 1
  60              	    __asm__ volatile("ecall");
 259              		li a0, 0x12
 260              	# 0 "" 2
 261              		.loc 1 60 5 is_stmt 1
 262              		.loc 1 60 30 is_stmt 0
 263              	# 60 "src/syscall_c.cpp" 1
  61              	    __asm__ volatile("mv %0, a0" : "=r" (ret));
 264              		ecall
 265              	# 0 "" 2
 266              		.loc 1 61 5 is_stmt 1
 267              		.loc 1 61 47 is_stmt 0
 268              	# 61 "src/syscall_c.cpp" 1
  62              	    return ret;
 269              		mv a0, a0
 270              	# 0 "" 2
 271              	.LVL11:
 272              		.loc 1 62 5 is_stmt 1
  63:src/syscall_c.cpp **** }
 273              		.loc 1 63 1 is_stmt 0
 274              	#NO_APP
 275 00e8 1B050500 		sext.w	a0,a0
 276 00ec 03348100 		ld	s0,8(sp)
 277              		.cfi_restore 8
 278              		.cfi_def_cfa 2, 16
 279 00f0 13010101 		addi	sp,sp,16
 280              		.cfi_def_cfa_offset 0
 281 00f4 67800000 		jr	ra
 282              		.cfi_endproc
 283              	.LFE24:
 285              		.align	2
 286              		.globl	_Z15thread_dispatchv
 288              	_Z15thread_dispatchv:
 289              	.LFB25:
  64:src/syscall_c.cpp **** 
GAS LISTING /tmp/ccQZ2wWP.s 			page 7


  65:src/syscall_c.cpp **** void thread_dispatch(){
 290              		.loc 1 65 23 is_stmt 1
 291              		.cfi_startproc
 292 00f8 130101FF 		addi	sp,sp,-16
 293              		.cfi_def_cfa_offset 16
 294 00fc 23348100 		sd	s0,8(sp)
 295              		.cfi_offset 8, -8
 296 0100 13040101 		addi	s0,sp,16
 297              		.cfi_def_cfa 8, 0
  66:src/syscall_c.cpp ****     __asm__ volatile("li a0, 0x13");
 298              		.loc 1 66 5
 299              		.loc 1 66 36 is_stmt 0
 300              	#APP
 301              	# 66 "src/syscall_c.cpp" 1
  67              	    __asm__ volatile("ecall");
 302              		li a0, 0x13
 303              	# 0 "" 2
 304              		.loc 1 67 5 is_stmt 1
 305              		.loc 1 67 30 is_stmt 0
 306              	# 67 "src/syscall_c.cpp" 1
  68              	}
 307              		ecall
 308              	# 0 "" 2
 309              		.loc 1 68 1
 310              	#NO_APP
 311 010c 03348100 		ld	s0,8(sp)
 312              		.cfi_restore 8
 313              		.cfi_def_cfa 2, 16
 314 0110 13010101 		addi	sp,sp,16
 315              		.cfi_def_cfa_offset 0
 316 0114 67800000 		jr	ra
 317              		.cfi_endproc
 318              	.LFE25:
 320              		.align	2
 321              		.globl	_Z15exit_supervisorv
 323              	_Z15exit_supervisorv:
 324              	.LFB26:
  69:src/syscall_c.cpp **** 
  70:src/syscall_c.cpp **** void exit_supervisor(){
 325              		.loc 1 70 23 is_stmt 1
 326              		.cfi_startproc
 327 0118 130101FF 		addi	sp,sp,-16
 328              		.cfi_def_cfa_offset 16
 329 011c 23348100 		sd	s0,8(sp)
 330              		.cfi_offset 8, -8
 331 0120 13040101 		addi	s0,sp,16
 332              		.cfi_def_cfa 8, 0
  71:src/syscall_c.cpp ****     __asm__ volatile("li a0, 0x15");
 333              		.loc 1 71 5
 334              		.loc 1 71 36 is_stmt 0
 335              	#APP
 336              	# 71 "src/syscall_c.cpp" 1
  72              	    __asm__ volatile("ecall");
 337              		li a0, 0x15
 338              	# 0 "" 2
 339              		.loc 1 72 5 is_stmt 1
 340              		.loc 1 72 30 is_stmt 0
GAS LISTING /tmp/ccQZ2wWP.s 			page 8


 341              	# 72 "src/syscall_c.cpp" 1
  73              	}
 342              		ecall
 343              	# 0 "" 2
 344              		.loc 1 73 1
 345              	#NO_APP
 346 012c 03348100 		ld	s0,8(sp)
 347              		.cfi_restore 8
 348              		.cfi_def_cfa 2, 16
 349 0130 13010101 		addi	sp,sp,16
 350              		.cfi_def_cfa_offset 0
 351 0134 67800000 		jr	ra
 352              		.cfi_endproc
 353              	.LFE26:
 355              		.align	2
 356              		.globl	_Z4putcc
 358              	_Z4putcc:
 359              	.LFB27:
  74:src/syscall_c.cpp **** 
  75:src/syscall_c.cpp **** void putc(char c){
 360              		.loc 1 75 18 is_stmt 1
 361              		.cfi_startproc
 362              	.LVL12:
 363 0138 130101FF 		addi	sp,sp,-16
 364              		.cfi_def_cfa_offset 16
 365 013c 23348100 		sd	s0,8(sp)
 366              		.cfi_offset 8, -8
 367 0140 13040101 		addi	s0,sp,16
 368              		.cfi_def_cfa 8, 0
  76:src/syscall_c.cpp ****     __asm__ volatile("mv a1, %0" :: "r" (c));
 369              		.loc 1 76 5
 370              		.loc 1 76 45 is_stmt 0
 371              	#APP
 372              	# 76 "src/syscall_c.cpp" 1
  77              	    __asm__ volatile("li a0, 0x42");
 373              		mv a1, a0
 374              	# 0 "" 2
 375              		.loc 1 77 5 is_stmt 1
 376              		.loc 1 77 36 is_stmt 0
 377              	# 77 "src/syscall_c.cpp" 1
  78              	    __asm__ volatile("ecall");
 378              		li a0, 0x42
 379              	# 0 "" 2
 380              		.loc 1 78 5 is_stmt 1
 381              		.loc 1 78 30 is_stmt 0
 382              	# 78 "src/syscall_c.cpp" 1
  79              	}
 383              		ecall
 384              	# 0 "" 2
 385              		.loc 1 79 1
 386              	#NO_APP
 387 0150 03348100 		ld	s0,8(sp)
 388              		.cfi_restore 8
 389              		.cfi_def_cfa 2, 16
 390 0154 13010101 		addi	sp,sp,16
 391              		.cfi_def_cfa_offset 0
 392 0158 67800000 		jr	ra
GAS LISTING /tmp/ccQZ2wWP.s 			page 9


 393              		.cfi_endproc
 394              	.LFE27:
 396              		.align	2
 397              		.globl	_Z4getcv
 399              	_Z4getcv:
 400              	.LFB28:
  80:src/syscall_c.cpp **** 
  81:src/syscall_c.cpp **** char getc(){
 401              		.loc 1 81 12 is_stmt 1
 402              		.cfi_startproc
 403 015c 130101FF 		addi	sp,sp,-16
 404              		.cfi_def_cfa_offset 16
 405 0160 23348100 		sd	s0,8(sp)
 406              		.cfi_offset 8, -8
 407 0164 13040101 		addi	s0,sp,16
 408              		.cfi_def_cfa 8, 0
  82:src/syscall_c.cpp ****     char cc;
 409              		.loc 1 82 5
  83:src/syscall_c.cpp ****     __asm__ volatile("li a0, 0x41");
 410              		.loc 1 83 5
 411              		.loc 1 83 36 is_stmt 0
 412              	#APP
 413              	# 83 "src/syscall_c.cpp" 1
  84              	    __asm__ volatile("ecall");
 414              		li a0, 0x41
 415              	# 0 "" 2
 416              		.loc 1 84 5 is_stmt 1
 417              		.loc 1 84 30 is_stmt 0
 418              	# 84 "src/syscall_c.cpp" 1
  85              	    __asm__ volatile("mv %0, a0" : "=r" (cc));
 419              		ecall
 420              	# 0 "" 2
 421              		.loc 1 85 5 is_stmt 1
 422              		.loc 1 85 46 is_stmt 0
 423              	# 85 "src/syscall_c.cpp" 1
  86              	    return cc;
 424              		mv a0, a0
 425              	# 0 "" 2
 426              	.LVL13:
 427              		.loc 1 86 5 is_stmt 1
  87:src/syscall_c.cpp **** }
 428              		.loc 1 87 1 is_stmt 0
 429              	#NO_APP
 430 0174 1375F50F 		andi	a0,a0,0xff
 431 0178 03348100 		ld	s0,8(sp)
 432              		.cfi_restore 8
 433              		.cfi_def_cfa 2, 16
 434 017c 13010101 		addi	sp,sp,16
 435              		.cfi_def_cfa_offset 0
 436 0180 67800000 		jr	ra
 437              		.cfi_endproc
 438              	.LFE28:
 440              	.Letext0:
 441              		.file 2 "src/../h/../lib/hw.h"
 442              		.file 3 "src/../h/../h/tcb.hpp"
 443              		.file 4 "src/../h/syscall_c.h"
GAS LISTING /tmp/ccQZ2wWP.s 			page 10

